target datalayout = "e-m:e-p270:32:32-p271:32:32-p272:64:64-i64:64-i128:128-f80:128-n8:16:32:64-S128"
target triple = "x86_64-pc-linux-gnu"

%"struct.cv::phase_unwrapping::HistogramPhaseUnwrapping::Params" = type { i32, i32, float, i32, i32 }
%"class.cv::phase_unwrapping::HistogramPhaseUnwrapping_Impl" = type { %"class.cv::phase_unwrapping::HistogramPhaseUnwrapping", %"struct.cv::phase_unwrapping::HistogramPhaseUnwrapping::Params", %"class.std::vector", %"class.cv::phase_unwrapping::HistogramPhaseUnwrapping_Impl::Histogram" }
%"class.cv::phase_unwrapping::HistogramPhaseUnwrapping" = type { %"class.cv::phase_unwrapping::PhaseUnwrapping" }
%"class.cv::phase_unwrapping::PhaseUnwrapping" = type { %"class.cv::Algorithm" }
%"class.cv::Algorithm" = type { ptr }
%"class.std::vector" = type { %"struct.std::_Vector_base" }
%"struct.std::_Vector_base" = type { %"struct.std::_Vector_base<cv::phase_unwrapping::HistogramPhaseUnwrapping_Impl::Pixel, std::allocator<cv::phase_unwrapping::HistogramPhaseUnwrapping_Impl::Pixel>>::_Vector_impl" }
%"struct.std::_Vector_base<cv::phase_unwrapping::HistogramPhaseUnwrapping_Impl::Pixel, std::allocator<cv::phase_unwrapping::HistogramPhaseUnwrapping_Impl::Pixel>>::_Vector_impl" = type { %"struct.std::_Vector_base<cv::phase_unwrapping::HistogramPhaseUnwrapping_Impl::Pixel, std::allocator<cv::phase_unwrapping::HistogramPhaseUnwrapping_Impl::Pixel>>::_Vector_impl_data" }
%"struct.std::_Vector_base<cv::phase_unwrapping::HistogramPhaseUnwrapping_Impl::Pixel, std::allocator<cv::phase_unwrapping::HistogramPhaseUnwrapping_Impl::Pixel>>::_Vector_impl_data" = type { ptr, ptr, ptr }
%"class.cv::phase_unwrapping::HistogramPhaseUnwrapping_Impl::Histogram" = type { %"class.std::vector.0", float, float, float, i32, i32, i32 }
%"class.std::vector.0" = type { %"struct.std::_Vector_base.1" }
%"struct.std::_Vector_base.1" = type { %"struct.std::_Vector_base<cv::phase_unwrapping::HistogramPhaseUnwrapping_Impl::HistogramBin, std::allocator<cv::phase_unwrapping::HistogramPhaseUnwrapping_Impl::HistogramBin>>::_Vector_impl" }
%"struct.std::_Vector_base<cv::phase_unwrapping::HistogramPhaseUnwrapping_Impl::HistogramBin, std::allocator<cv::phase_unwrapping::HistogramPhaseUnwrapping_Impl::HistogramBin>>::_Vector_impl" = type { %"struct.std::_Vector_base<cv::phase_unwrapping::HistogramPhaseUnwrapping_Impl::HistogramBin, std::allocator<cv::phase_unwrapping::HistogramPhaseUnwrapping_Impl::HistogramBin>>::_Vector_impl_data" }
%"struct.std::_Vector_base<cv::phase_unwrapping::HistogramPhaseUnwrapping_Impl::HistogramBin, std::allocator<cv::phase_unwrapping::HistogramPhaseUnwrapping_Impl::HistogramBin>>::_Vector_impl_data" = type { ptr, ptr, ptr }

@_ZN2cv16phase_unwrapping29HistogramPhaseUnwrapping_Impl9HistogramC1Ev = unnamed_addr alias void (ptr), ptr @_ZN2cv16phase_unwrapping29HistogramPhaseUnwrapping_Impl9HistogramC2Ev

; Function Attrs: mustprogress nounwind uwtable
define linkonce_odr hidden void @_ZNSt15__new_allocatorIN2cv16phase_unwrapping29HistogramPhaseUnwrapping_Impl5PixelEE10deallocateEPS3_m(ptr noundef nonnull align 1 dereferenceable(1) %0, ptr noundef %1, i64 noundef %2) #0 comdat align 2 {
  %4 = alloca ptr, align 8
  %5 = alloca ptr, align 8
  %6 = alloca i64, align 8
  store ptr %0, ptr %4, align 8, !tbaa !179
  store ptr %1, ptr %5, align 8, !tbaa !33
  store i64 %2, ptr %6, align 8, !tbaa !88
  %7 = load ptr, ptr %5, align 8, !tbaa !33
  call void @_ZdlPv(ptr noundef %7) #21
  ret void
}

; Function Attrs: mustprogress nounwind uwtable
define linkonce_odr hidden void @_ZNSt15__new_allocatorIN2cv16phase_unwrapping29HistogramPhaseUnwrapping_Impl5PixelEEC2Ev(ptr noundef nonnull align 1 dereferenceable(1) %0) unnamed_addr #0 comdat align 2 {
  %2 = alloca ptr, align 8
  store ptr %0, ptr %2, align 8, !tbaa !179
  ret void
}

; Function Attrs: mustprogress uwtable
define linkonce_odr hidden void @_ZNSt16allocator_traitsISaIN2cv16phase_unwrapping29HistogramPhaseUnwrapping_Impl5PixelEEE10deallocateERS4_PS3_m(ptr noundef nonnull align 1 dereferenceable(1) %0, ptr noundef %1, i64 noundef %2) #1 comdat align 2 {
  %4 = alloca ptr, align 8
  %5 = alloca ptr, align 8
  %6 = alloca i64, align 8
  store ptr %0, ptr %4, align 8, !tbaa !175
  store ptr %1, ptr %5, align 8, !tbaa !33
  store i64 %2, ptr %6, align 8, !tbaa !88
  %7 = load ptr, ptr %4, align 8, !tbaa !175
  %8 = load ptr, ptr %5, align 8, !tbaa !33
  %9 = load i64, ptr %6, align 8, !tbaa !88
  call void @_ZNSt15__new_allocatorIN2cv16phase_unwrapping29HistogramPhaseUnwrapping_Impl5PixelEE10deallocateEPS3_m(ptr noundef nonnull align 1 dereferenceable(1) %7, ptr noundef %8, i64 noundef %9)
  ret void
}

; Function Attrs: mustprogress nounwind uwtable
define linkonce_odr hidden void @_ZNSt12_Destroy_auxILb1EE9__destroyIPN2cv16phase_unwrapping29HistogramPhaseUnwrapping_Impl5PixelEEEvT_S7_(ptr noundef %0, ptr noundef %1) #0 comdat align 2 {
  %3 = alloca ptr, align 8
  %4 = alloca ptr, align 8
  store ptr %0, ptr %3, align 8, !tbaa !33
  store ptr %1, ptr %4, align 8, !tbaa !33
  ret void
}

; Function Attrs: mustprogress nounwind uwtable
define linkonce_odr hidden void @_ZNSt12_Vector_baseIN2cv16phase_unwrapping29HistogramPhaseUnwrapping_Impl5PixelESaIS3_EE17_Vector_impl_dataC2Ev(ptr noundef nonnull align 8 dereferenceable(24) %0) unnamed_addr #0 comdat align 2 {
  %2 = alloca ptr, align 8
  store ptr %0, ptr %2, align 8, !tbaa !177
  %3 = load ptr, ptr %2, align 8
  %4 = getelementptr inbounds nuw %"struct.std::_Vector_base<cv::phase_unwrapping::HistogramPhaseUnwrapping_Impl::Pixel, std::allocator<cv::phase_unwrapping::HistogramPhaseUnwrapping_Impl::Pixel>>::_Vector_impl_data", ptr %3, i32 0, i32 0
  store ptr null, ptr %4, align 8, !tbaa !29
  %5 = getelementptr inbounds nuw %"struct.std::_Vector_base<cv::phase_unwrapping::HistogramPhaseUnwrapping_Impl::Pixel, std::allocator<cv::phase_unwrapping::HistogramPhaseUnwrapping_Impl::Pixel>>::_Vector_impl_data", ptr %3, i32 0, i32 1
  store ptr null, ptr %5, align 8, !tbaa !32
  %6 = getelementptr inbounds nuw %"struct.std::_Vector_base<cv::phase_unwrapping::HistogramPhaseUnwrapping_Impl::Pixel, std::allocator<cv::phase_unwrapping::HistogramPhaseUnwrapping_Impl::Pixel>>::_Vector_impl_data", ptr %3, i32 0, i32 2
  store ptr null, ptr %6, align 8, !tbaa !139
  ret void
}

; Function Attrs: mustprogress nounwind uwtable
define linkonce_odr hidden void @_ZNSaIN2cv16phase_unwrapping29HistogramPhaseUnwrapping_Impl5PixelEEC2Ev(ptr noundef nonnull align 1 dereferenceable(1) %0) unnamed_addr #0 comdat align 2 {
  %2 = alloca ptr, align 8
  store ptr %0, ptr %2, align 8, !tbaa !175
  %3 = load ptr, ptr %2, align 8
  call void @_ZNSt15__new_allocatorIN2cv16phase_unwrapping29HistogramPhaseUnwrapping_Impl5PixelEEC2Ev(ptr noundef nonnull align 1 dereferenceable(1) %3) #18
  ret void
}

; Function Attrs: mustprogress nounwind uwtable
define linkonce_odr hidden void @_ZNSt15__new_allocatorIN2cv16phase_unwrapping29HistogramPhaseUnwrapping_Impl5PixelEED2Ev(ptr noundef nonnull align 1 dereferenceable(1) %0) unnamed_addr #0 comdat align 2 {
  %2 = alloca ptr, align 8
  store ptr %0, ptr %2, align 8, !tbaa !179
  ret void
}

; Function Attrs: mustprogress uwtable
define linkonce_odr hidden void @_ZNSt12_Vector_baseIN2cv16phase_unwrapping29HistogramPhaseUnwrapping_Impl5PixelESaIS3_EE13_M_deallocateEPS3_m(ptr noundef nonnull align 8 dereferenceable(24) %0, ptr noundef %1, i64 noundef %2) #1 comdat align 2 {
  %4 = alloca ptr, align 8
  %5 = alloca ptr, align 8
  %6 = alloca i64, align 8
  store ptr %0, ptr %4, align 8, !tbaa !171
  store ptr %1, ptr %5, align 8, !tbaa !33
  store i64 %2, ptr %6, align 8, !tbaa !88
  %7 = load ptr, ptr %4, align 8
  %8 = load ptr, ptr %5, align 8, !tbaa !33
  %9 = icmp ne ptr %8, null
  br i1 %9, label %10, label %14

10:                                               ; preds = %3
  %11 = getelementptr inbounds nuw %"struct.std::_Vector_base", ptr %7, i32 0, i32 0
  %12 = load ptr, ptr %5, align 8, !tbaa !33
  %13 = load i64, ptr %6, align 8, !tbaa !88
  call void @_ZNSt16allocator_traitsISaIN2cv16phase_unwrapping29HistogramPhaseUnwrapping_Impl5PixelEEE10deallocateERS4_PS3_m(ptr noundef nonnull align 1 dereferenceable(1) %11, ptr noundef %12, i64 noundef %13)
  br label %14

14:                                               ; preds = %10, %3
  ret void
}

; Function Attrs: inlinehint mustprogress uwtable
define linkonce_odr void @_ZSt8_DestroyIPN2cv16phase_unwrapping29HistogramPhaseUnwrapping_Impl5PixelEEvT_S5_(ptr noundef %0, ptr noundef %1) #8 comdat {
  %3 = alloca ptr, align 8
  %4 = alloca ptr, align 8
  store ptr %0, ptr %3, align 8, !tbaa !33
  store ptr %1, ptr %4, align 8, !tbaa !33
  %5 = load ptr, ptr %3, align 8, !tbaa !33
  %6 = load ptr, ptr %4, align 8, !tbaa !33
  call void @_ZNSt12_Destroy_auxILb1EE9__destroyIPN2cv16phase_unwrapping29HistogramPhaseUnwrapping_Impl5PixelEEEvT_S7_(ptr noundef %5, ptr noundef %6)
  ret void
}

; Function Attrs: mustprogress nounwind uwtable
define linkonce_odr hidden void @_ZNSt12_Vector_baseIN2cv16phase_unwrapping29HistogramPhaseUnwrapping_Impl5PixelESaIS3_EE12_Vector_implC2Ev(ptr noundef nonnull align 8 dereferenceable(24) %0) unnamed_addr #0 comdat align 2 {
  %2 = alloca ptr, align 8
  store ptr %0, ptr %2, align 8, !tbaa !173
  %3 = load ptr, ptr %2, align 8
  call void @_ZNSaIN2cv16phase_unwrapping29HistogramPhaseUnwrapping_Impl5PixelEEC2Ev(ptr noundef nonnull align 1 dereferenceable(1) %3) #18
  call void @_ZNSt12_Vector_baseIN2cv16phase_unwrapping29HistogramPhaseUnwrapping_Impl5PixelESaIS3_EE17_Vector_impl_dataC2Ev(ptr noundef nonnull align 8 dereferenceable(24) %3) #18
  ret void
}

; Function Attrs: inlinehint mustprogress nounwind uwtable
define linkonce_odr hidden void @_ZN2cv16phase_unwrapping15PhaseUnwrappingD2Ev(ptr noundef nonnull align 8 dereferenceable(8) %0, ptr noundef %1) unnamed_addr #2 comdat align 2 {
  %3 = alloca ptr, align 8
  %4 = alloca ptr, align 8
  store ptr %0, ptr %3, align 8, !tbaa !169
  store ptr %1, ptr %4, align 8, !tbaa !18
  ret void
}

; Function Attrs: noinline noreturn nounwind uwtable
define linkonce_odr hidden void @__clang_call_terminate(ptr noundef %0) #11 comdat {
  %2 = call ptr @__cxa_begin_catch(ptr %0) #18
  call void @_ZSt9terminatev() #19
  unreachable
}

; Function Attrs: mustprogress nounwind uwtable
define linkonce_odr hidden void @_ZNSt12_Vector_baseIN2cv16phase_unwrapping29HistogramPhaseUnwrapping_Impl5PixelESaIS3_EED2Ev(ptr noundef nonnull align 8 dereferenceable(24) %0) unnamed_addr #0 comdat align 2 personality ptr @__gxx_personality_v0 {
  %2 = alloca ptr, align 8
  store ptr %0, ptr %2, align 8, !tbaa !171
  %3 = load ptr, ptr %2, align 8
  %4 = getelementptr inbounds nuw %"struct.std::_Vector_base", ptr %3, i32 0, i32 0
  %5 = getelementptr inbounds nuw %"struct.std::_Vector_base<cv::phase_unwrapping::HistogramPhaseUnwrapping_Impl::Pixel, std::allocator<cv::phase_unwrapping::HistogramPhaseUnwrapping_Impl::Pixel>>::_Vector_impl_data", ptr %4, i32 0, i32 0
  %6 = load ptr, ptr %5, align 8, !tbaa !29
  %7 = getelementptr inbounds nuw %"struct.std::_Vector_base", ptr %3, i32 0, i32 0
  %8 = getelementptr inbounds nuw %"struct.std::_Vector_base<cv::phase_unwrapping::HistogramPhaseUnwrapping_Impl::Pixel, std::allocator<cv::phase_unwrapping::HistogramPhaseUnwrapping_Impl::Pixel>>::_Vector_impl_data", ptr %7, i32 0, i32 2
  %9 = load ptr, ptr %8, align 8, !tbaa !139
  %10 = getelementptr inbounds nuw %"struct.std::_Vector_base", ptr %3, i32 0, i32 0
  %11 = getelementptr inbounds nuw %"struct.std::_Vector_base<cv::phase_unwrapping::HistogramPhaseUnwrapping_Impl::Pixel, std::allocator<cv::phase_unwrapping::HistogramPhaseUnwrapping_Impl::Pixel>>::_Vector_impl_data", ptr %10, i32 0, i32 0
  %12 = load ptr, ptr %11, align 8, !tbaa !29
  %13 = ptrtoint ptr %9 to i64
  %14 = ptrtoint ptr %12 to i64
  %15 = sub i64 %13, %14
  %16 = sdiv exact i64 %15, 32
  invoke void @_ZNSt12_Vector_baseIN2cv16phase_unwrapping29HistogramPhaseUnwrapping_Impl5PixelESaIS3_EE13_M_deallocateEPS3_m(ptr noundef nonnull align 8 dereferenceable(24) %3, ptr noundef %6, i64 noundef %16)
          to label %17 unwind label %19

17:                                               ; preds = %1
  %18 = getelementptr inbounds nuw %"struct.std::_Vector_base", ptr %3, i32 0, i32 0
  call void @_ZNSt15__new_allocatorIN2cv16phase_unwrapping29HistogramPhaseUnwrapping_Impl5PixelEED2Ev(ptr noundef nonnull align 8 dereferenceable(24) %18) #18
  ret void

19:                                               ; preds = %1
  %20 = landingpad { ptr, i32 }
          catch ptr null
  %21 = extractvalue { ptr, i32 } %20, 0
  call void @__clang_call_terminate(ptr %21) #19
  unreachable
}

; Function Attrs: inlinehint mustprogress uwtable
define linkonce_odr void @_ZSt8_DestroyIPN2cv16phase_unwrapping29HistogramPhaseUnwrapping_Impl5PixelES3_EvT_S5_RSaIT0_E(ptr noundef %0, ptr noundef %1, ptr noundef nonnull align 1 dereferenceable(1) %2) #8 comdat {
  %4 = alloca ptr, align 8
  %5 = alloca ptr, align 8
  %6 = alloca ptr, align 8
  store ptr %0, ptr %4, align 8, !tbaa !33
  store ptr %1, ptr %5, align 8, !tbaa !33
  store ptr %2, ptr %6, align 8, !tbaa !175
  %7 = load ptr, ptr %4, align 8, !tbaa !33
  %8 = load ptr, ptr %5, align 8, !tbaa !33
  call void @_ZSt8_DestroyIPN2cv16phase_unwrapping29HistogramPhaseUnwrapping_Impl5PixelEEvT_S5_(ptr noundef %7, ptr noundef %8)
  ret void
}

; Function Attrs: mustprogress nounwind uwtable
define linkonce_odr hidden noundef nonnull align 1 dereferenceable(1) ptr @_ZNSt12_Vector_baseIN2cv16phase_unwrapping29HistogramPhaseUnwrapping_Impl5PixelESaIS3_EE19_M_get_Tp_allocatorEv(ptr noundef nonnull align 8 dereferenceable(24) %0) #0 comdat align 2 {
  %2 = alloca ptr, align 8
  store ptr %0, ptr %2, align 8, !tbaa !171
  %3 = load ptr, ptr %2, align 8
  %4 = getelementptr inbounds nuw %"struct.std::_Vector_base", ptr %3, i32 0, i32 0
  ret ptr %4
}

; Function Attrs: mustprogress nounwind uwtable
define linkonce_odr hidden void @_ZNSt12_Vector_baseIN2cv16phase_unwrapping29HistogramPhaseUnwrapping_Impl5PixelESaIS3_EEC2Ev(ptr noundef nonnull align 8 dereferenceable(24) %0) unnamed_addr #0 comdat align 2 {
  %2 = alloca ptr, align 8
  store ptr %0, ptr %2, align 8, !tbaa !171
  %3 = load ptr, ptr %2, align 8
  %4 = getelementptr inbounds nuw %"struct.std::_Vector_base", ptr %3, i32 0, i32 0
  call void @_ZNSt12_Vector_baseIN2cv16phase_unwrapping29HistogramPhaseUnwrapping_Impl5PixelESaIS3_EE12_Vector_implC2Ev(ptr noundef nonnull align 8 dereferenceable(24) %4) #18
  ret void
}

; Function Attrs: inlinehint mustprogress nounwind uwtable
define linkonce_odr hidden void @_ZN2cv16phase_unwrapping15PhaseUnwrappingC2Ev(ptr noundef nonnull align 8 dereferenceable(8) %0, ptr noundef %1) unnamed_addr #2 comdat align 2 {
  %3 = alloca ptr, align 8
  %4 = alloca ptr, align 8
  store ptr %0, ptr %3, align 8, !tbaa !169
  store ptr %1, ptr %4, align 8, !tbaa !18
  %5 = load ptr, ptr %3, align 8
  %6 = load ptr, ptr %4, align 8
  %7 = load ptr, ptr %6, align 8
  store ptr %7, ptr %5, align 8, !tbaa !20
  %8 = getelementptr inbounds ptr, ptr %6, i64 1
  %9 = load ptr, ptr %8, align 8
  %10 = load ptr, ptr %5, align 8, !tbaa !20
  %11 = getelementptr i8, ptr %10, i64 -80
  %12 = load i64, ptr %11, align 8
  %13 = getelementptr inbounds i8, ptr %5, i64 %12
  store ptr %9, ptr %13, align 8, !tbaa !20
  ret void
}

; Function Attrs: inlinehint mustprogress nounwind uwtable
define linkonce_odr hidden void @_ZN2cv16phase_unwrapping24HistogramPhaseUnwrappingD2Ev(ptr noundef nonnull align 8 dereferenceable(8) %0, ptr noundef %1) unnamed_addr #2 comdat align 2 {
  %3 = alloca ptr, align 8
  %4 = alloca ptr, align 8
  store ptr %0, ptr %3, align 8, !tbaa !25
  store ptr %1, ptr %4, align 8, !tbaa !18
  %5 = load ptr, ptr %3, align 8
  %6 = load ptr, ptr %4, align 8
  %7 = getelementptr inbounds ptr, ptr %6, i64 1
  call void @_ZN2cv16phase_unwrapping15PhaseUnwrappingD2Ev(ptr noundef nonnull align 8 dereferenceable(8) %5, ptr noundef %7) #18
  ret void
}

; Function Attrs: mustprogress nounwind uwtable
define linkonce_odr hidden void @_ZNSt6vectorIN2cv16phase_unwrapping29HistogramPhaseUnwrapping_Impl5PixelESaIS3_EED2Ev(ptr noundef nonnull align 8 dereferenceable(24) %0) unnamed_addr #0 comdat align 2 personality ptr @__gxx_personality_v0 {
  %2 = alloca ptr, align 8
  store ptr %0, ptr %2, align 8, !tbaa !27
  %3 = load ptr, ptr %2, align 8
  %4 = getelementptr inbounds nuw %"struct.std::_Vector_base", ptr %3, i32 0, i32 0
  %5 = getelementptr inbounds nuw %"struct.std::_Vector_base<cv::phase_unwrapping::HistogramPhaseUnwrapping_Impl::Pixel, std::allocator<cv::phase_unwrapping::HistogramPhaseUnwrapping_Impl::Pixel>>::_Vector_impl_data", ptr %4, i32 0, i32 0
  %6 = load ptr, ptr %5, align 8, !tbaa !29
  %7 = getelementptr inbounds nuw %"struct.std::_Vector_base", ptr %3, i32 0, i32 0
  %8 = getelementptr inbounds nuw %"struct.std::_Vector_base<cv::phase_unwrapping::HistogramPhaseUnwrapping_Impl::Pixel, std::allocator<cv::phase_unwrapping::HistogramPhaseUnwrapping_Impl::Pixel>>::_Vector_impl_data", ptr %7, i32 0, i32 1
  %9 = load ptr, ptr %8, align 8, !tbaa !32
  %10 = call noundef nonnull align 1 dereferenceable(1) ptr @_ZNSt12_Vector_baseIN2cv16phase_unwrapping29HistogramPhaseUnwrapping_Impl5PixelESaIS3_EE19_M_get_Tp_allocatorEv(ptr noundef nonnull align 8 dereferenceable(24) %3) #18
  invoke void @_ZSt8_DestroyIPN2cv16phase_unwrapping29HistogramPhaseUnwrapping_Impl5PixelES3_EvT_S5_RSaIT0_E(ptr noundef %6, ptr noundef %9, ptr noundef nonnull align 1 dereferenceable(1) %10)
          to label %11 unwind label %12

11:                                               ; preds = %1
  call void @_ZNSt12_Vector_baseIN2cv16phase_unwrapping29HistogramPhaseUnwrapping_Impl5PixelESaIS3_EED2Ev(ptr noundef nonnull align 8 dereferenceable(24) %3) #18
  ret void

12:                                               ; preds = %1
  %13 = landingpad { ptr, i32 }
          catch ptr null
  %14 = extractvalue { ptr, i32 } %13, 0
  call void @__clang_call_terminate(ptr %14) #19
  unreachable
}

; Function Attrs: mustprogress nounwind uwtable
define linkonce_odr hidden void @_ZNSt6vectorIN2cv16phase_unwrapping29HistogramPhaseUnwrapping_Impl5PixelESaIS3_EEC2Ev(ptr noundef nonnull align 8 dereferenceable(24) %0) unnamed_addr #0 comdat align 2 {
  %2 = alloca ptr, align 8
  store ptr %0, ptr %2, align 8, !tbaa !27
  %3 = load ptr, ptr %2, align 8
  call void @_ZNSt12_Vector_baseIN2cv16phase_unwrapping29HistogramPhaseUnwrapping_Impl5PixelESaIS3_EEC2Ev(ptr noundef nonnull align 8 dereferenceable(24) %3) #18
  ret void
}

; Function Attrs: inlinehint mustprogress nounwind uwtable
define linkonce_odr hidden void @_ZN2cv16phase_unwrapping24HistogramPhaseUnwrappingC2Ev(ptr noundef nonnull align 8 dereferenceable(8) %0, ptr noundef %1) unnamed_addr #2 comdat align 2 {
  %3 = alloca ptr, align 8
  %4 = alloca ptr, align 8
  store ptr %0, ptr %3, align 8, !tbaa !25
  store ptr %1, ptr %4, align 8, !tbaa !18
  %5 = load ptr, ptr %3, align 8
  %6 = load ptr, ptr %4, align 8
  %7 = getelementptr inbounds ptr, ptr %6, i64 1
  call void @_ZN2cv16phase_unwrapping15PhaseUnwrappingC2Ev(ptr noundef nonnull align 8 dereferenceable(8) %5, ptr noundef %7) #18
  %8 = load ptr, ptr %6, align 8
  store ptr %8, ptr %5, align 8, !tbaa !20
  %9 = getelementptr inbounds ptr, ptr %6, i64 3
  %10 = load ptr, ptr %9, align 8
  %11 = load ptr, ptr %5, align 8, !tbaa !20
  %12 = getelementptr i8, ptr %11, i64 -80
  %13 = load i64, ptr %12, align 8
  %14 = getelementptr inbounds i8, ptr %5, i64 %13
  store ptr %10, ptr %14, align 8, !tbaa !20
  ret void
}

; Function Attrs: mustprogress uwtable
define void @_ZN2cv16phase_unwrapping29HistogramPhaseUnwrapping_ImplC1ERKNS0_24HistogramPhaseUnwrapping6ParamsE(ptr noundef nonnull align 8 dereferenceable(104) %0, ptr noundef nonnull align 4 dereferenceable(20) %1) unnamed_addr #1 align 2 personality ptr @__gxx_personality_v0 {
  %3 = alloca ptr, align 8
  %4 = alloca ptr, align 8
  %5 = alloca ptr, align 8
  %6 = alloca i32, align 4
  store ptr %0, ptr %3, align 8, !tbaa !16
  store ptr %1, ptr %4, align 8, !tbaa !3
  %7 = load ptr, ptr %3, align 8
  call void @_ZN2cv9AlgorithmC2Ev(ptr noundef nonnull align 8 dereferenceable(8) %7)
  call void @_ZN2cv16phase_unwrapping24HistogramPhaseUnwrappingC2Ev(ptr noundef nonnull align 8 dereferenceable(8) %7, ptr noundef getelementptr inbounds ([6 x ptr], ptr @_ZTTN2cv16phase_unwrapping29HistogramPhaseUnwrapping_ImplE, i64 0, i64 1)) #18
  store ptr getelementptr inbounds inrange(-80, 80) ({ [20 x ptr] }, ptr @_ZTVN2cv16phase_unwrapping29HistogramPhaseUnwrapping_ImplE, i32 0, i32 0, i32 10), ptr %7, align 8, !tbaa !20
  store ptr getelementptr inbounds inrange(-80, 80) ({ [20 x ptr] }, ptr @_ZTVN2cv16phase_unwrapping29HistogramPhaseUnwrapping_ImplE, i32 0, i32 0, i32 10), ptr %7, align 8, !tbaa !20
  %8 = getelementptr inbounds nuw %"class.cv::phase_unwrapping::HistogramPhaseUnwrapping_Impl", ptr %7, i32 0, i32 1
  %9 = load ptr, ptr %4, align 8, !tbaa !3
  call void @llvm.memcpy.p0.p0.i64(ptr align 8 %8, ptr align 4 %9, i64 20, i1 false), !tbaa.struct !22
  %10 = getelementptr inbounds nuw %"class.cv::phase_unwrapping::HistogramPhaseUnwrapping_Impl", ptr %7, i32 0, i32 2
  call void @_ZNSt6vectorIN2cv16phase_unwrapping29HistogramPhaseUnwrapping_Impl5PixelESaIS3_EEC2Ev(ptr noundef nonnull align 8 dereferenceable(24) %10) #18
  %11 = getelementptr inbounds nuw %"class.cv::phase_unwrapping::HistogramPhaseUnwrapping_Impl", ptr %7, i32 0, i32 3
  invoke void @_ZN2cv16phase_unwrapping29HistogramPhaseUnwrapping_Impl9HistogramC1Ev(ptr noundef nonnull align 8 dereferenceable(48) %11)
          to label %12 unwind label %13

12:                                               ; preds = %2
  ret void

13:                                               ; preds = %2
  %14 = landingpad { ptr, i32 }
          cleanup
  %15 = extractvalue { ptr, i32 } %14, 0
  store ptr %15, ptr %5, align 8
  %16 = extractvalue { ptr, i32 } %14, 1
  store i32 %16, ptr %6, align 4
  call void @_ZNSt6vectorIN2cv16phase_unwrapping29HistogramPhaseUnwrapping_Impl5PixelESaIS3_EED2Ev(ptr noundef nonnull align 8 dereferenceable(24) %10) #18
  call void @_ZN2cv16phase_unwrapping24HistogramPhaseUnwrappingD2Ev(ptr noundef nonnull align 8 dereferenceable(8) %7, ptr noundef getelementptr inbounds ([6 x ptr], ptr @_ZTTN2cv16phase_unwrapping29HistogramPhaseUnwrapping_ImplE, i64 0, i64 1)) #18
  call void @_ZN2cv9AlgorithmD2Ev(ptr noundef nonnull align 8 dereferenceable(8) %7) #18
  br label %17

17:                                               ; preds = %13
  %18 = load ptr, ptr %5, align 8
  %19 = load i32, ptr %6, align 4
  %20 = insertvalue { ptr, i32 } poison, ptr %18, 0
  %21 = insertvalue { ptr, i32 } %20, i32 %19, 1
  resume { ptr, i32 } %21
}