; Function Attrs: mustprogress uwtable
define void @_ZN2cv16phase_unwrapping29HistogramPhaseUnwrapping_ImplC1ERKNS0_24HistogramPhaseUnwrapping6ParamsE(ptr noundef nonnull align 8 dereferenceable(104) %0, ptr noundef nonnull readonly align 4 captures(none) dereferenceable(20) %1) unnamed_addr #1 align 2 personality ptr @__gxx_personality_v0 {
  tail call void @_ZN2cv9AlgorithmC2Ev(ptr noundef nonnull align 8 dereferenceable(8) %0)
  store ptr getelementptr inbounds nuw inrange(-80, 80) (i8, ptr @_ZTVN2cv16phase_unwrapping29HistogramPhaseUnwrapping_ImplE, i64 80), ptr %0, align 8, !tbaa !13
  %3 = getelementptr inbounds nuw i8, ptr %0, i64 8
  tail call void @llvm.memcpy.p0.p0.i64(ptr noundef nonnull align 8 dereferenceable(20) %3, ptr noundef nonnull align 4 dereferenceable(20) %1, i64 20, i1 false), !tbaa.struct !15
  %4 = getelementptr inbounds nuw i8, ptr %0, i64 32
  tail call void @llvm.memset.p0.i64(ptr noundef nonnull align 8 dereferenceable(24) %4, i8 0, i64 24, i1 false)
  %5 = getelementptr inbounds nuw i8, ptr %0, i64 56
  invoke void @_ZN2cv16phase_unwrapping29HistogramPhaseUnwrapping_Impl9HistogramC1Ev(ptr noundef nonnull align 8 dereferenceable(48) %5)
          to label %6 unwind label %7

6:                                                ; preds = %2
  ret void

7:                                                ; preds = %2
  %8 = landingpad { ptr, i32 }
          cleanup
  %9 = load ptr, ptr %4, align 8, !tbaa !18
  %.not.i.i.i = icmp eq ptr %9, null
  br i1 %.not.i.i.i, label %_ZNSt6vectorIN2cv16phase_unwrapping29HistogramPhaseUnwrapping_Impl5PixelESaIS3_EED2Ev.exit, label %10

10:                                               ; preds = %7
  tail call void @_ZdlPv(ptr noundef nonnull %9) #23
  br label %_ZNSt6vectorIN2cv16phase_unwrapping29HistogramPhaseUnwrapping_Impl5PixelESaIS3_EED2Ev.exit

_ZNSt6vectorIN2cv16phase_unwrapping29HistogramPhaseUnwrapping_Impl5PixelESaIS3_EED2Ev.exit: ; preds = %7, %10
  tail call void @_ZN2cv9AlgorithmD2Ev(ptr noundef nonnull align 8 dereferenceable(8) %0) #24
  resume { ptr, i32 } %8
}